; Function Attrs: nounwind uwtable
define dso_local i32 @luaL_error(ptr noundef %0, ptr noundef %1, ...) local_unnamed_addr #0 {
  %3 = alloca %struct.lua_Debug, align 8
  %4 = alloca [1 x %struct.__va_list_tag], align 16
  call void @llvm.lifetime.start.p0(i64 24, ptr nonnull %4) #17
  call void @llvm.va_start.p0(ptr nonnull %4)
  call void @llvm.lifetime.start.p0(i64 120, ptr nonnull %3) #17
  %5 = call i32 @lua_getstack(ptr noundef %0, i32 noundef 1, ptr noundef nonnull %3) #17
  %.not.i = icmp eq i32 %5, 0
  br i1 %.not.i, label %14, label %6

6:                                                ; preds = %2
  %7 = call i32 @lua_getinfo(ptr noundef %0, ptr noundef nonnull @.str.7, ptr noundef nonnull %3) #17
  %8 = getelementptr inbounds nuw i8, ptr %3, i64 40
  %9 = load i32, ptr %8, align 8, !tbaa !12
  %10 = icmp sgt i32 %9, 0
  br i1 %10, label %11, label %14

11:                                               ; preds = %6
  %12 = getelementptr inbounds nuw i8, ptr %3, i64 56
  %13 = call ptr (ptr, ptr, ...) @lua_pushfstring(ptr noundef %0, ptr noundef nonnull @.str.8, ptr noundef nonnull %12, i32 noundef %9) #17
  br label %luaL_where.exit

14:                                               ; preds = %6, %2
  call void @lua_pushlstring(ptr noundef %0, ptr noundef nonnull @.str.9, i64 noundef 0) #17
  br label %luaL_where.exit

luaL_where.exit:                                  ; preds = %11, %14
  call void @llvm.lifetime.end.p0(i64 120, ptr nonnull %3) #17
  %15 = call ptr @lua_pushvfstring(ptr noundef %0, ptr noundef %1, ptr noundef nonnull %4) #17
  call void @llvm.va_end.p0(ptr nonnull %4)
  call void @lua_concat(ptr noundef %0, i32 noundef 2) #17
  %16 = call i32 @lua_error(ptr noundef %0) #17
  call void @llvm.lifetime.end.p0(i64 24, ptr nonnull %4) #17
  ret i32 %16
}